#include <math.h>
#include <stdio.h>
#include <stdlib.h>
#include <string.h>

main()
{
      char s[900];
      int i,n,j;
      
      scanf("%d",&n);
      gets(s);
      for (i=0;i<n;i++)
      {
          gets(s);
          j=0;
          if ((s[j]=='_') || (s[j]>='a' && s[j]<='z') || (s[j]>='A' && s[j]<='Z'))
          {
              //if (strlen(s)>0)
              for (j=1;j<strlen(s);j++)
                  if ((s[j]=='_')||(s[j]>='a' && s[j]<='z')||(s[j]>='A' && s[j]<='Z')||(s[j]>='0' && s[j]<='9'))
                      continue;
                  else
                      break;
              if (j==strlen(s))
                  printf("1\n");
              else
                  printf("0\n");
          }
          else
              printf("0\n");
          
      }
      }
